; Function Attrs: mustprogress nounwind uwtable
define dso_local void @_ZN4node4quic6Packet27CreateConnectionClosePacketEPNS_11EnvironmentEPNS1_8ListenerERKNS_13SocketAddressEP11ngtcp2_connRKNS0_9QuicErrorE(ptr noalias nocapture writeonly sret(%"class.node::BaseObjectPtrImpl.290") align 8 %agg.result, ptr noundef %env, ptr noundef %listener, ptr nocapture noundef nonnull readonly align 8 dereferenceable(136) %destination, ptr noundef %conn, ptr noundef nonnull align 8 dereferenceable(88) %error) local_unnamed_addr #6 align 2 {
entry:
  %packet = alloca %"class.node::BaseObjectPtrImpl.290", align 8
  call void @_ZN4node4quic6Packet6CreateEPNS_11EnvironmentEPNS1_8ListenerERKNS_13SocketAddressEmPKc(ptr nonnull sret(%"class.node::BaseObjectPtrImpl.290") align 8 %packet, ptr noundef %env, ptr noundef %listener, ptr noundef nonnull align 8 dereferenceable(136) %destination, i64 noundef 1200, ptr noundef nonnull @.str.7)
  %0 = load ptr, ptr %packet, align 8
  %data_.i = getelementptr inbounds i8, ptr %0, i64 552
  %1 = load ptr, ptr %data_.i, align 8
  %cmp.i.not.i = icmp eq ptr %1, null
  %2 = ptrtoint ptr %0 to i64
  br i1 %cmp.i.not.i, label %_ZNK4node4quic6Packetcv10ngtcp2_vecEv.exit, label %cond.false.i

cond.false.i:                                     ; preds = %entry
  %data_.i.i = getelementptr inbounds i8, ptr %1, i64 8
  %buf_.i.i.i = getelementptr inbounds i8, ptr %1, i64 24
  %3 = load ptr, ptr %buf_.i.i.i, align 8
  %4 = load i64, ptr %data_.i.i, align 8
  br label %_ZNK4node4quic6Packetcv10ngtcp2_vecEv.exit

_ZNK4node4quic6Packetcv10ngtcp2_vecEv.exit:       ; preds = %entry, %cond.false.i
  %retval.sroa.0.0.i = phi ptr [ %3, %cond.false.i ], [ null, %entry ]
  %retval.sroa.3.0.i = phi i64 [ %4, %cond.false.i ], [ 0, %entry ]
  %call2 = tail call noundef ptr @_ZNK4node4quic9QuicErrorcvPK29ngtcp2_connection_close_errorEv(ptr noundef nonnull align 8 dereferenceable(88) %error) #22
  %call3 = tail call i64 @uv_hrtime() #22
  %call4 = tail call i64 @ngtcp2_conn_write_connection_close_versioned(ptr noundef %conn, ptr noundef null, i32 noundef 1, ptr noundef null, ptr noundef %retval.sroa.0.0.i, i64 noundef %retval.sroa.3.0.i, ptr noundef %call2, i64 noundef %call3) #22
  %cmp = icmp slt i64 %call4, 0
  br i1 %cmp, label %if.then.i, label %if.end

if.end:                                           ; preds = %_ZNK4node4quic6Packetcv10ngtcp2_vecEv.exit
  %5 = load ptr, ptr %data_.i, align 8
  %capacity_.i.i.i = getelementptr inbounds i8, ptr %5, i64 16
  %6 = load i64, ptr %capacity_.i.i.i, align 8
  %cmp.not.i.i = icmp ult i64 %6, %call4
  br i1 %cmp.not.i.i, label %do.body4.i.i, label %cleanup.thread

do.body4.i.i:                                     ; preds = %if.end
  tail call void @_ZN4node6AssertERKNS_13AssertionInfoE(ptr noundef nonnull align 8 dereferenceable(24) @_ZZN4node16MaybeStackBufferIhLm1200EE9SetLengthEmE4args) #22
  tail call void @abort() #23
  unreachable

cleanup.thread:                                   ; preds = %if.end
  %data_2.i = getelementptr inbounds i8, ptr %5, i64 8
  store i64 %call4, ptr %data_2.i, align 8
  store i64 %2, ptr %agg.result, align 8
  br label %_ZN4node17BaseObjectPtrImplINS_4quic6PacketELb0EED2Ev.exit

if.then.i:                                        ; preds = %_ZNK4node4quic6Packetcv10ngtcp2_vecEv.exit
  tail call void @_ZN4node4quic6Packet4DoneEi(ptr noundef nonnull align 8 dereferenceable(576) %0, i32 noundef -125)
  store ptr null, ptr %agg.result, align 8
  tail call void @_ZN4node10BaseObject17decrease_refcountEv(ptr noundef nonnull align 8 dereferenceable(32) %0) #22
  br label %_ZN4node17BaseObjectPtrImplINS_4quic6PacketELb0EED2Ev.exit

_ZN4node17BaseObjectPtrImplINS_4quic6PacketELb0EED2Ev.exit: ; preds = %cleanup.thread, %if.then.i
  ret void
}